target datalayout = "e-m:e-p270:32:32-p271:32:32-p272:64:64-i64:64-i128:128-f80:128-n8:16:32:64-S128"
target triple = "x86_64-pc-linux-gnu"

%struct.X509_pubkey_st = type { ptr, ptr, ptr, ptr, ptr, i8 }
%struct.asn1_string_st = type { i32, i32, ptr, i64 }
%struct.X509_algor_st = type { ptr, ptr }
%struct.CRYPTO_REF_COUNT = type { i32 }
%struct.crypto_ex_data_st = type { ptr, ptr }
%struct.x509_st = type { %struct.x509_cinf_st, %struct.X509_algor_st, %struct.asn1_string_st, %struct.x509_sig_info_st, %struct.CRYPTO_REF_COUNT, %struct.crypto_ex_data_st, i64, i64, i32, i32, i32, i32, ptr, ptr, ptr, ptr, ptr, ptr, ptr, ptr, [20 x i8], ptr, ptr, i32, ptr, ptr, ptr }
%struct.x509_cinf_st = type { ptr, %struct.asn1_string_st, %struct.X509_algor_st, ptr, %struct.X509_val_st, ptr, ptr, ptr, ptr, ptr, %struct.ASN1_ENCODING_st }
%struct.X509_val_st = type { ptr, ptr }
%struct.ASN1_ENCODING_st = type { ptr, i64, i32 }
%struct.x509_sig_info_st = type { i32, i32, i32, i32 }

; Function Attrs: nounwind uwtable
define ptr @X509_get0_pubkey_bitstr(ptr noundef %0) #0 {
  %2 = alloca ptr, align 8
  %3 = alloca ptr, align 8
  store ptr %0, ptr %3, align 8, !tbaa !102
  %4 = load ptr, ptr %3, align 8, !tbaa !102
  %5 = icmp eq ptr %4, null
  br i1 %5, label %6, label %7

6:                                                ; preds = %1
  store ptr null, ptr %2, align 8
  br label %14

7:                                                ; preds = %1
  %8 = load ptr, ptr %3, align 8, !tbaa !102
  %9 = getelementptr inbounds nuw %struct.x509_st, ptr %8, i32 0, i32 0
  %10 = getelementptr inbounds nuw %struct.x509_cinf_st, ptr %9, i32 0, i32 6
  %11 = load ptr, ptr %10, align 8, !tbaa !104
  %12 = getelementptr inbounds nuw %struct.X509_pubkey_st, ptr %11, i32 0, i32 1
  %13 = load ptr, ptr %12, align 8, !tbaa !26
  store ptr %13, ptr %2, align 8
  br label %14

14:                                               ; preds = %7, %6
  %15 = load ptr, ptr %2, align 8
  ret ptr %15
}